; Function Attrs: mustprogress nounwind uwtable
define void @_ZN5boost6fibers7context15suspend_with_ccEv(ptr dead_on_unwind noalias nocapture writable writeonly sret(%"class.boost::context::fiber") align 8 %0, ptr noundef nonnull align 8 dereferenceable(232) %1) local_unnamed_addr #3 align 2 personality ptr @__gxx_personality_v0 {
  %3 = alloca %class.anon.24, align 8
  %4 = tail call align 8 ptr @llvm.threadlocal.address.p0(ptr align 8 @_ZN5boost6fibers19context_initializer7active_E)
  %5 = load ptr, ptr %4, align 8, !tbaa !13
  store ptr %1, ptr %4, align 8, !tbaa !13
  %6 = getelementptr inbounds nuw i8, ptr %1, i64 208
  %7 = ptrtoint ptr %5 to i64
  tail call void @llvm.experimental.noalias.scope.decl(metadata !71)
  call void @llvm.lifetime.start.p0(i64 8, ptr nonnull %3) #8, !noalias !71
  store i64 %7, ptr %3, align 8, !tbaa !13, !noalias !71
  %8 = load ptr, ptr %6, align 8, !tbaa !13, !noalias !71
  store ptr null, ptr %6, align 8, !tbaa !13, !noalias !71
  %9 = invoke { ptr, ptr } @ontop_fcontext(ptr noundef %8, ptr noundef nonnull %3, ptr noundef nonnull @"_ZN5boost7context6detail11fiber_ontopINS0_5fiberEZNS_6fibers7context15suspend_with_ccEvE3$_0EENS1_10transfer_tES7_")
          to label %10 unwind label %12

10:                                               ; preds = %2
  %11 = extractvalue { ptr, ptr } %9, 0
  store ptr %11, ptr %0, align 8, !tbaa !74, !alias.scope !71
  call void @llvm.lifetime.end.p0(i64 8, ptr nonnull %3) #8, !noalias !71
  ret void

12:                                               ; preds = %2
  %13 = landingpad { ptr, i32 }
          catch ptr null
  %14 = extractvalue { ptr, i32 } %13, 0
  call void @__clang_call_terminate(ptr %14) #32
  unreachable
}